EXPORTS
	_ZN10TAknsPkgID11SetFromDesLERK7TDesC16 @ 1 NONAME
	_ZN11TAknsItemID11LinearOrderERKS_S1_ @ 2 NONAME
	_ZN12CAknsItemDef11LinearOrderERKS_S1_ @ 3 NONAME
	_ZN12CAknsItemDef4NewLERK11TAknsItemID @ 4 NONAME
	_ZN12CAknsItemDef9Reserved1Ev @ 5 NONAME
	_ZN12CAknsItemDef9Reserved2Ev @ 6 NONAME
	_ZN12CAknsItemDefC1ERK11TAknsItemID @ 7 NONAME
	_ZN12CAknsItemDefC2ERK11TAknsItemID @ 8 NONAME
	_ZN12CAknsItemDefD0Ev @ 9 NONAME
	_ZN12CAknsItemDefD1Ev @ 10 NONAME
	_ZN12CAknsItemDefD2Ev @ 11 NONAME
	_ZN15RAknsSrvSession10DeleteSkinE10TAknsPkgID30TAknSkinSrvSkinPackageLocation @ 12 NONAME
	_ZN15RAknsSrvSession11ClientErrorEi @ 13 NONAME
	_ZN15RAknsSrvSession11OpenInifileE10TAknsPkgID30TAknSkinSrvSkinPackageLocationRii @ 14 NONAME
	_ZN15RAknsSrvSession13CopySoundFileERK7TDesC16S2_ @ 15 NONAME
	_ZN15RAknsSrvSession14OpenBitmapFileERK7TDesC16Ri @ 16 NONAME
	_ZN15RAknsSrvSession16SetIdleWallpaperERK7TDesC16 @ 17 NONAME
	_ZN15RAknsSrvSession18CreateChunkLookupLEv @ 18 NONAME
	_ZN15RAknsSrvSession20SetAllDefinitionSetsE10TAknsPkgID @ 19 NONAME
	_ZN15RAknsSrvSession21ClearScalableGraphicsEv @ 20 NONAME
	_ZN15RAknsSrvSession21StoreScalableGraphicsERK11TAknsItemIDiRK5TSizePK10CFbsBitmapS8_i @ 21 NONAME
	_ZN15RAknsSrvSession22EnableSkinChangeNotifyEv @ 22 NONAME
	_ZN15RAknsSrvSession22EnumerateSkinPackagesLE30TAknSkinSrvSkinPackageLocation @ 23 NONAME
	_ZN15RAknsSrvSession23DisableSkinChangeNotifyEv @ 24 NONAME
	_ZN15RAknsSrvSession5CloseEv @ 25 NONAME
	_ZN15RAknsSrvSession7ConnectEP23MAknsSkinChangeObserveri @ 26 NONAME
	_ZN15RAknsSrvSession8CopySkinE10TAknsPkgID30TAknSkinSrvSkinPackageLocationS1_ @ 27 NONAME
	_ZN15RAknsSrvSession9Reserved1Ev @ 28 NONAME
	_ZN15RAknsSrvSession9Reserved2Ev @ 29 NONAME
	_ZN15RAknsSrvSession9Reserved3Ev @ 30 NONAME
	_ZN15RAknsSrvSession9Reserved4Ev @ 31 NONAME
	_ZN15RAknsSrvSessionC1Ev @ 32 NONAME
	_ZN15RAknsSrvSessionC2Ev @ 33 NONAME
	_ZN17CAknsImageItemDef14SetAttributesLERK23TAknsImageAttributeData @ 34 NONAME
	_ZN17CAknsImageItemDef4NewLERK11TAknsItemID @ 35 NONAME
	_ZN18CAknsBitmapItemDef11SetFilenameERK7TDesC16 @ 36 NONAME
	_ZN18CAknsBitmapItemDef12SetFilenameLERK7TDesC16 @ 37 NONAME
	_ZN18CAknsBitmapItemDef4NewLERK11TAknsItemID @ 38 NONAME
	_ZN18CAknsBitmapItemDef4NewLERK11TAknsItemIDRK7TDesC16i @ 39 NONAME
	_ZN18CAknsBitmapItemDef8SetIndexEi @ 40 NONAME
	_ZN18CAknsEffectItemDef12SetEffectUidE4TUid @ 41 NONAME
	_ZN18CAknsEffectItemDef13AddParameterLEP19CAknsEffectParamDef @ 42 NONAME
	_ZN18CAknsEffectItemDef23SetLayerIndexesAndModesEmmmmmm @ 43 NONAME
	_ZN18CAknsEffectItemDef4NewLEv @ 44 NONAME
	_ZN18CAknsStringItemDef10SetStringLERK7TDesC16 @ 45 NONAME
	_ZN18CAknsStringItemDef4NewLERK11TAknsItemID @ 46 NONAME
	_ZN19CAknsBmpAnimItemDef11SetPlayModeEs @ 47 NONAME
	_ZN19CAknsBmpAnimItemDef13SetFrameInfosEPK21TAknsBmpAnimFrameInfo @ 48 NONAME
	_ZN19CAknsBmpAnimItemDef14SetFrameInfosLEPK21TAknsBmpAnimFrameInfo @ 49 NONAME
	_ZN19CAknsBmpAnimItemDef16SetFrameIntervalEs @ 50 NONAME
	_ZN19CAknsBmpAnimItemDef22SetLastFrameBackgroundEi @ 51 NONAME
	_ZN19CAknsBmpAnimItemDef4NewLERK11TAknsItemID @ 52 NONAME
	_ZN19CAknsBmpAnimItemDef4NewLERK11TAknsItemIDiPS1_PK21TAknsBmpAnimFrameInfo @ 53 NONAME
	_ZN19CAknsBmpAnimItemDef8SetFlashEi @ 54 NONAME
	_ZN19CAknsEffectParamDef11GetFilenameEv @ 55 NONAME
	_ZN19CAknsEffectParamDef12GetMaskIndexEv @ 56 NONAME
	_ZN19CAknsEffectParamDef14GetBitmapIndexEv @ 57 NONAME
	_ZN19CAknsEffectParamDef4NewLEv @ 58 NONAME
	_ZN19CAknsEffectParamDef7GetNameEv @ 59 NONAME
	_ZN19CAknsEffectParamDef7GetTypeEv @ 60 NONAME
	_ZN19CAknsEffectParamDef7SetTypeEm @ 61 NONAME
	_ZN19CAknsEffectParamDef8SetNameLERK7TDesC16 @ 62 NONAME
	_ZN19CAknsEffectParamDef8SetValueEm @ 63 NONAME
	_ZN19CAknsEffectParamDef9GetNumberEv @ 64 NONAME
	_ZN19CAknsEffectParamDef9GetStringEv @ 65 NONAME
	_ZN19CAknsEffectParamDef9SetValueLERK7TDesC16 @ 66 NONAME
	_ZN19CAknsEffectParamDef9SetValueLERK7TDesC16mm @ 67 NONAME
	_ZN19CAknsSrvChunkLookup11BeginRenderEv @ 68 NONAME
	_ZN19CAknsSrvChunkLookup19LookupAndCreateDefLERK11TAknsItemID @ 69 NONAME
	_ZN19CAknsSrvChunkLookup28LookupAndCreateScalableItemLERK11TAknsItemIDiRK5TSizeRP10CFbsBitmapS8_Ri @ 70 NONAME
	_ZN19CAknsSrvChunkLookup8ReservedEv @ 71 NONAME
	_ZN19CAknsSrvChunkLookup9EndRenderEv @ 72 NONAME
	_ZN19CAknsTimingModelDef13AddParameterLEP19CAknsEffectParamDef @ 73 NONAME
	_ZN19CAknsTimingModelDef17SetTimingModelUidE4TUid @ 74 NONAME
	_ZN19CAknsTimingModelDef4NewLEv @ 75 NONAME
	_ZN21CAknsAnimationItemDef11SetMorphingEi @ 76 NONAME
	_ZN21CAknsAnimationItemDef14SetMinIntervalEm @ 77 NONAME
	_ZN21CAknsAnimationItemDef15AddTimingModelLEP19CAknsTimingModelDef @ 78 NONAME
	_ZN21CAknsAnimationItemDef18AddAnimationValueLEP22CAknsAnimationValueDef @ 79 NONAME
	_ZN21CAknsAnimationItemDef18AddSizeBoundParamLEP22CAknsSizeBoundParamDef @ 80 NONAME
	_ZN21CAknsAnimationItemDef21AddPreprocessCommandLEP18CAknsEffectItemDef @ 81 NONAME
	_ZN21CAknsAnimationItemDef23SetLayerIndexesAndModesEmmmm @ 82 NONAME
	_ZN21CAknsAnimationItemDef24AddAnimationCommandItemLEP28CAknsAnimationCommandItemDef @ 83 NONAME
	_ZN21CAknsAnimationItemDef4NewLERK11TAknsItemID @ 84 NONAME
	_ZN22CAknsAnimationValueDef13AddParameterLEP19CAknsEffectParamDef @ 85 NONAME
	_ZN22CAknsAnimationValueDef16SetTimingModelIdEm @ 86 NONAME
	_ZN22CAknsAnimationValueDef20SetAnimationValueUidE4TUid @ 87 NONAME
	_ZN22CAknsAnimationValueDef4NewLEv @ 88 NONAME
	_ZN22CAknsColorTableItemDef10SetColorsLEiPK20TAknsColorTableEntry @ 89 NONAME
	_ZN22CAknsColorTableItemDef4NewLERK11TAknsItemID @ 90 NONAME
	_ZN22CAknsColorTableItemDef4NewLERK11TAknsItemIDiPK20TAknsColorTableEntry @ 91 NONAME
	_ZN22CAknsColorTableItemDef9SetColorsEiPK20TAknsColorTableEntry @ 92 NONAME
	_ZN22CAknsImageTableItemDef10SetImagesLEiPK11TAknsItemID @ 93 NONAME
	_ZN22CAknsImageTableItemDef4NewLERK11TAknsItemID @ 94 NONAME
	_ZN22CAknsImageTableItemDef4NewLERK11TAknsItemIDiPS1_ @ 95 NONAME
	_ZN22CAknsImageTableItemDef9SetImagesEiPK11TAknsItemID @ 96 NONAME
	_ZN22CAknsNamedReferenceDef4NewLEv @ 97 NONAME
	_ZN22CAknsNamedReferenceDef8SetDataLERK7TDesC16m @ 98 NONAME
	_ZN22CAknsSizeBoundParamDef4NewLEv @ 99 NONAME
	_ZN22CAknsSizeBoundParamDef8SetDataLERK7TDesC16mm @ 100 NONAME
	_ZN23CAknsEffectQueueItemDef10AddEffectLEP18CAknsEffectItemDef @ 101 NONAME
	_ZN23CAknsEffectQueueItemDef12SetReferenceERK11TAknsItemID @ 102 NONAME
	_ZN23CAknsEffectQueueItemDef23SetLayerIndexesAndModesEmmmm @ 103 NONAME
	_ZN23CAknsEffectQueueItemDef4NewLERK11TAknsItemID @ 104 NONAME
	_ZN24CAknsMaskedBitmapItemDef12SetMaskIndexEi @ 105 NONAME
	_ZN24CAknsMaskedBitmapItemDef4NewLERK11TAknsItemID @ 106 NONAME
	_ZN24CAknsMaskedBitmapItemDef4NewLERK11TAknsItemIDRK7TDesC16ii @ 107 NONAME
	_ZN28CAknsAnimationCommandItemDef18AddNamedReferenceLEP22CAknsNamedReferenceDef @ 108 NONAME
	_ZN28CAknsAnimationCommandItemDef4NewLEv @ 109 NONAME
	_ZN8CAknsSrv11ThreadStartEv @ 110 NONAME
	_ZNK10TAknsPkgID9CopyToDesER6TDes16 @ 111 NONAME
	_ZNK12CAknsItemDef2IDEv @ 112 NONAME
	_ZNK12CAknsItemDef4TypeEv @ 113 NONAME
	_ZNK17CAknsImageItemDef10AttributesEv @ 114 NONAME
	_ZNK18CAknsBitmapItemDef5IndexEv @ 115 NONAME
	_ZNK18CAknsBitmapItemDef8FilenameEv @ 116 NONAME
	_ZNK18CAknsEffectItemDef12GetParameterEl @ 117 NONAME
	_ZNK18CAknsEffectItemDef14ParameterCountEv @ 118 NONAME
	_ZNK18CAknsEffectItemDef9EffectUidEv @ 119 NONAME
	_ZNK18CAknsStringItemDef6StringEv @ 120 NONAME
	_ZNK19CAknsBmpAnimItemDef10FrameInfosEv @ 121 NONAME
	_ZNK19CAknsBmpAnimItemDef13FrameIntervalEv @ 122 NONAME
	_ZNK19CAknsBmpAnimItemDef19LastFrameBackgroundEv @ 123 NONAME
	_ZNK19CAknsBmpAnimItemDef5FlashEv @ 124 NONAME
	_ZNK19CAknsBmpAnimItemDef8PlayModeEv @ 125 NONAME
	_ZNK19CAknsTimingModelDef14ParameterCountEv @ 126 NONAME
	_ZNK19CAknsTimingModelDef14TimingModelUidEv @ 127 NONAME
	_ZNK19CAknsTimingModelDef9ParameterEl @ 128 NONAME
	_ZNK21CAknsAnimationItemDef11MinIntervalEv @ 129 NONAME
	_ZNK21CAknsAnimationItemDef11TimingModelEl @ 130 NONAME
	_ZNK21CAknsAnimationItemDef14AnimationValueEl @ 131 NONAME
	_ZNK21CAknsAnimationItemDef14SizeBoundParamEl @ 132 NONAME
	_ZNK21CAknsAnimationItemDef16TimingModelCountEv @ 133 NONAME
	_ZNK21CAknsAnimationItemDef17PreprocessCommandEl @ 134 NONAME
	_ZNK21CAknsAnimationItemDef19AnimationValueCountEv @ 135 NONAME
	_ZNK21CAknsAnimationItemDef19SizeBoundParamCountEv @ 136 NONAME
	_ZNK21CAknsAnimationItemDef20AnimationCommandItemEl @ 137 NONAME
	_ZNK21CAknsAnimationItemDef22PreprocessCommandCountEv @ 138 NONAME
	_ZNK21CAknsAnimationItemDef25AnimationCommandItemCountEv @ 139 NONAME
	_ZNK21CAknsAnimationItemDef8MorphingEv @ 140 NONAME
	_ZNK22CAknsAnimationValueDef13TimingModelIdEv @ 141 NONAME
	_ZNK22CAknsAnimationValueDef14ParameterCountEv @ 142 NONAME
	_ZNK22CAknsAnimationValueDef17AnimationValueUidEv @ 143 NONAME
	_ZNK22CAknsAnimationValueDef9ParameterEl @ 144 NONAME
	_ZNK22CAknsColorTableItemDef14NumberOfColorsEv @ 145 NONAME
	_ZNK22CAknsColorTableItemDef6ColorsEv @ 146 NONAME
	_ZNK22CAknsImageTableItemDef14NumberOfImagesEv @ 147 NONAME
	_ZNK22CAknsImageTableItemDef6ImagesEv @ 148 NONAME
	_ZNK22CAknsNamedReferenceDef16AnimationValueIdEv @ 149 NONAME
	_ZNK22CAknsNamedReferenceDef4NameEv @ 150 NONAME
	_ZNK22CAknsSizeBoundParamDef10ParamFlagsEv @ 151 NONAME
	_ZNK22CAknsSizeBoundParamDef16AnimationValueIdEv @ 152 NONAME
	_ZNK22CAknsSizeBoundParamDef4NameEv @ 153 NONAME
	_ZNK23CAknsEffectQueueItemDef11EffectCountEv @ 154 NONAME
	_ZNK23CAknsEffectQueueItemDef9GetEffectEl @ 155 NONAME
	_ZNK24CAknsMaskedBitmapItemDef9MaskIndexEv @ 156 NONAME
	_ZNK26CAknsSrvSkinInformationPkg10HasIconsetEv @ 157 NONAME
	_ZNK26CAknsSrvSkinInformationPkg10IsCopyableEv @ 158 NONAME
	_ZNK26CAknsSrvSkinInformationPkg11IsCorruptedEv @ 159 NONAME
	_ZNK26CAknsSrvSkinInformationPkg11IsDeletableEv @ 160 NONAME
	_ZNK26CAknsSrvSkinInformationPkg14ColorSchemePIDEv @ 161 NONAME
	_ZNK26CAknsSrvSkinInformationPkg14ProtectionTypeEv @ 162 NONAME
	_ZNK26CAknsSrvSkinInformationPkg16IniFileDirectoryEv @ 163 NONAME
	_ZNK26CAknsSrvSkinInformationPkg27PinboardWallPaperImageIndexEv @ 164 NONAME
	_ZNK26CAknsSrvSkinInformationPkg28IdleStateWallPaperImageIndexEv @ 165 NONAME
	_ZNK26CAknsSrvSkinInformationPkg29PinboarWallPaperImageFileNameEv @ 166 NONAME
	_ZNK26CAknsSrvSkinInformationPkg31IdleStateWallPaperImageFileNameEv @ 167 NONAME
	_ZNK26CAknsSrvSkinInformationPkg3PIDEv @ 168 NONAME
	_ZNK26CAknsSrvSkinInformationPkg4NameEv @ 169 NONAME
	_ZNK26CAknsSrvSkinInformationPkg8FullNameEv @ 170 NONAME
	_ZNK26CAknsSrvSkinInformationPkg9DirectoryEv @ 171 NONAME
	_ZNK28CAknsAnimationCommandItemDef14NamedReferenceEl @ 172 NONAME
	_ZNK28CAknsAnimationCommandItemDef19NamedReferenceCountEv @ 173 NONAME
	_ZTI12CAknsItemDef @ 174 NONAME ; #<TI>#
	_ZTI19CAknsTimingModelDef @ 175 NONAME ; #<TI>#
	_ZTI21CAknsAnimationItemDef @ 176 NONAME ; #<TI>#
	_ZTI21CAknsSrvMorphingTimer @ 177 NONAME ; #<TI>#
	_ZTI22CAknsAnimationValueDef @ 178 NONAME ; #<TI>#
	_ZTI22CAknsNamedReferenceDef @ 179 NONAME ; #<TI>#
	_ZTI22CAknsSizeBoundParamDef @ 180 NONAME ; #<TI>#
	_ZTI28CAknsAnimationCommandItemDef @ 181 NONAME ; #<TI>#
	_ZTV12CAknsItemDef @ 182 NONAME ; #<VT>#
	_ZTV19CAknsTimingModelDef @ 183 NONAME ; #<VT>#
	_ZTV21CAknsAnimationItemDef @ 184 NONAME ; #<VT>#
	_ZTV21CAknsSrvMorphingTimer @ 185 NONAME ; #<VT>#
	_ZTV22CAknsAnimationValueDef @ 186 NONAME ; #<VT>#
	_ZTV22CAknsNamedReferenceDef @ 187 NONAME ; #<VT>#
	_ZTV22CAknsSizeBoundParamDef @ 188 NONAME ; #<VT>#
	_ZTV28CAknsAnimationCommandItemDef @ 189 NONAME ; #<VT>#
	_ZN15RAknsSrvSession21DecodeWallpaperImageLERK7TDesC16RK5TSizeRP10CFbsBitmapS8_ @ 190 NONAME
	_ZN15RAknsSrvSession28FreeUnnecessaryLayoutBitmapsE18TAknsSrcScreenMode @ 191 NONAME
	_ZN15RAknsSrvSession16OpenImageInifileE19TAknsSrvInifileTypeRi @ 192 NONAME
	_ZN15RAknsSrvSession20SetSlideSetWallpaperERK12CDesC16Array @ 193 NONAME
	_ZN15RAknsSrvSession22CheckIconConfigurationE4TUid @ 194 NONAME
	_ZNK26CAknsSrvSkinInformationPkg15IsSupportAnimBgEv @ 195 NONAME
	_ZN15RAknsSrvSession13AddWallpaperLERK7TDesC16RK5TSize @ 196 NONAME
	_ZN15RAknsSrvSession15RemoveWallpaperERK7TDesC16 @ 197 NONAME
	_ZN15RAknsSrvSession15WallpaperImageLERK7TDesC16 @ 198 NONAME
	_ZN15RAknsSrvSession19RemoveAllWallpapersEv @ 199 NONAME

