EXPORTS
	_ZN13AknsDrawUtils10BackgroundEP17MAknsSkinInstanceP19MAknsControlContextPK11CCoeControlR9CWindowGcRK5TRect @ 1 NONAME
	_ZN13AknsDrawUtils10BackgroundEP17MAknsSkinInstanceP19MAknsControlContextPK11CCoeControlR9CWindowGcRK5TRecti @ 2 NONAME
	_ZN13AknsDrawUtils10BackgroundEP17MAknsSkinInstanceP19MAknsControlContextR9CWindowGcRK5TRect @ 3 NONAME
	_ZN13AknsDrawUtils13DrawFramePartEP17MAknsSkinInstanceR9CWindowGcRK5TRectRK11TAknsItemID22TAknsFrameElementIndex @ 4 NONAME
	_ZN13AknsDrawUtils14ControlContextEPK15MObjectProvider @ 5 NONAME
	_ZN13AknsDrawUtils14DrawBackgroundEP17MAknsSkinInstanceP19MAknsControlContextPK11CCoeControlR14CBitmapContextRK6TPointRK5TRecti @ 6 NONAME
	_ZN13AknsDrawUtils15DrawCachedImageEP17MAknsSkinInstanceR9CFbsBitGcRK5TRectRK11TAknsItemID @ 7 NONAME
	_ZN13AknsDrawUtils15DrawCachedImageEP17MAknsSkinInstanceR9CWindowGcRK5TRectRK11TAknsItemID @ 8 NONAME
	_ZN13AknsDrawUtils19HasBitmapBackgroundEP17MAknsSkinInstanceP19MAknsControlContext @ 9 NONAME
	_ZN13AknsDrawUtils20IsListSeperatorLinesEP17MAknsSkinInstance @ 10 NONAME
	_ZN13AknsDrawUtils22BackgroundBetweenRectsEP17MAknsSkinInstanceP19MAknsControlContextPK11CCoeControlR9CWindowGcRK5TRectSB_ @ 11 NONAME
	_ZN13AknsDrawUtils22BackgroundBetweenRectsEP17MAknsSkinInstanceP19MAknsControlContextPK11CCoeControlR9CWindowGcRK5TRectSB_i @ 12 NONAME
	_ZN13AknsDrawUtils22BackgroundBetweenRectsEP17MAknsSkinInstanceP19MAknsControlContextR9CWindowGcRK5TRectS8_ @ 13 NONAME
	_ZN13AknsDrawUtils22ControlContextOfParentEPK11CCoeControl @ 14 NONAME
	_ZN13AknsDrawUtils9DrawFrameEP17MAknsSkinInstanceR9CFbsBitGcRK5TRectS6_RK11TAknsItemIDS9_ @ 15 NONAME
	_ZN13AknsDrawUtils9DrawFrameEP17MAknsSkinInstanceR9CFbsBitGcRK5TRectS6_RK11TAknsItemIDS9_i @ 16 NONAME
	_ZN13AknsDrawUtils9DrawFrameEP17MAknsSkinInstanceR9CWindowGcRK5TRectS6_RK11TAknsItemIDS9_ @ 17 NONAME
	_ZN16AknsPointerStore13RemovePointerEPKv @ 18 NONAME
	_ZN16AknsPointerStore13StorePointerLEPKvPv @ 19 NONAME
	_ZN16AknsPointerStore15RetrievePointerEPKv @ 20 NONAME
	_ZN16MAknsDataContext15SupplyMopObjectE8TTypeUidPS_ @ 21 NONAME
	_ZN18CAknsEffectCommand12SetEffectUidE4TUid @ 22 NONAME
	_ZN18CAknsEffectCommand12SetLayerConfE20TAknsRlRenderOpParam @ 23 NONAME
	_ZN18CAknsEffectCommand16AppendParameterLERK20TAknsRlParameterData @ 24 NONAME
	_ZN18CAknsEffectCommand24CreateParameterIteratorLEv @ 25 NONAME
	_ZN18CAknsEffectCommand4NewLEv @ 26 NONAME
	_ZN18CAknsImageItemData14SetAttributesLERK23TAknsImageAttributeData @ 27 NONAME
	_ZN19AknsRendererWrapper19RenderScalableItemLEP17MAknsSkinInstanceRK11TAknsItemIDRP10CFbsBitmapS7_RK5TRectPKS5_SC_ @ 28 NONAME
	_ZN19CAknsBitmapItemData19DestroyAndSetBitmapEP10CFbsBitmap @ 29 NONAME
	_ZN19CAknsBitmapItemData4NewLEv @ 30 NONAME
	_ZN19CAknsBitmapItemData6BitmapEv @ 31 NONAME
	_ZN19CAknsBitmapItemData9SetBitmapEP10CFbsBitmap @ 32 NONAME
	_ZN19CAknsStringItemData10SetStringLERK7TDesC16 @ 33 NONAME
	_ZN19CAknsStringItemData4NewLEv @ 34 NONAME
	_ZN19MAknsControlContext15SupplyMopObjectE8TTypeUidPS_ @ 35 NONAME
	_ZN20CAknsAppSkinInstance10DebugResetEv @ 36 NONAME
	_ZN20CAknsAppSkinInstance15DebugCacheCountEv @ 37 NONAME
	_ZN20CAknsAppSkinInstance21DebugHookClientErrorsEPFvPvES0_ @ 38 NONAME
	_ZN20CAknsAppSkinInstance22DebugLocalItemDefCountEv @ 39 NONAME
	_ZN20CAknsAppSkinInstance28DebugHookChangeNotificationsEPFvPvES0_ @ 40 NONAME
	_ZN20CAknsBmpAnimItemData11SetPlayModeEs @ 41 NONAME
	_ZN20CAknsBmpAnimItemData14SetFrameInfosLEPK21TAknsBmpAnimFrameInfo @ 42 NONAME
	_ZN20CAknsBmpAnimItemData16SetFrameIntervalEs @ 43 NONAME
	_ZN20CAknsBmpAnimItemData22SetLastFrameBackgroundEi @ 44 NONAME
	_ZN20CAknsBmpAnimItemData4NewLEv @ 45 NONAME
	_ZN20CAknsBmpAnimItemData8SetFlashEi @ 46 NONAME
	_ZN23CAknsColorTableItemData10SetColorsLEiPK20TAknsColorTableEntry @ 47 NONAME
	_ZN23CAknsColorTableItemData4NewLEv @ 48 NONAME
	_ZN23CAknsImageTableItemData10SetImagesLEiPK11TAknsItemID @ 49 NONAME
	_ZN23CAknsImageTableItemData4NewLEv @ 50 NONAME
	_ZN24CAknsEffectQueueItemData10SetRefItemE11TAknsItemID @ 51 NONAME
	_ZN24CAknsEffectQueueItemData13SetInputLayerEi @ 52 NONAME
	_ZN24CAknsEffectQueueItemData14AppendCommandLEPK18CAknsEffectCommand @ 53 NONAME
	_ZN24CAknsEffectQueueItemData14SetOutputLayerEi @ 54 NONAME
	_ZN24CAknsEffectQueueItemData17SetInputLayerModeEi @ 55 NONAME
	_ZN24CAknsEffectQueueItemData18SetOutputLayerModeEi @ 56 NONAME
	_ZN24CAknsEffectQueueItemData22CreateCommandIteratorLEv @ 57 NONAME
	_ZN24CAknsEffectQueueItemData4NewLEv @ 58 NONAME
	_ZN25CAknsMaskedBitmapItemData17DestroyAndSetMaskEP10CFbsBitmap @ 59 NONAME
	_ZN25CAknsMaskedBitmapItemData4MaskEv @ 60 NONAME
	_ZN25CAknsMaskedBitmapItemData4NewLEv @ 61 NONAME
	_ZN25CAknsMaskedBitmapItemData7SetMaskEP10CFbsBitmap @ 62 NONAME
	_ZN34CAknsBasicBackgroundControlContext12SetParentPosERK6TPoint @ 63 NONAME
	_ZN34CAknsBasicBackgroundControlContext16SetParentContextEP19MAknsControlContext @ 64 NONAME
	_ZN34CAknsBasicBackgroundControlContext4NewLERK11TAknsItemIDRK5TRecti @ 65 NONAME
	_ZN34CAknsBasicBackgroundControlContext7SetRectERK5TRect @ 66 NONAME
	_ZN34CAknsBasicBackgroundControlContext9SetBitmapERK11TAknsItemID @ 67 NONAME
	_ZN34CAknsFrameBackgroundControlContext13SetFrameRectsERK5TRectS2_ @ 68 NONAME
	_ZN34CAknsFrameBackgroundControlContext16SetFramePartRectERK5TRect22TAknsFrameElementIndex @ 69 NONAME
	_ZN34CAknsFrameBackgroundControlContext4NewLERK11TAknsItemIDRK5TRectS5_i @ 70 NONAME
	_ZN34CAknsFrameBackgroundControlContext8SetFrameERK11TAknsItemID @ 71 NONAME
	_ZN34CAknsFrameBackgroundControlContext9SetCenterERK11TAknsItemID @ 72 NONAME
	_ZN36CAknsLayeredBackgroundControlContext12SetLayerRectEiRK5TRect @ 73 NONAME
	_ZN36CAknsLayeredBackgroundControlContext13SetLayerImageEiRK11TAknsItemID @ 74 NONAME
	_ZN36CAknsLayeredBackgroundControlContext4NewLERK11TAknsItemIDRK5TRectii @ 75 NONAME
	_ZN36CAknsListBoxBackgroundControlContext12SetTiledRectERK5TRect @ 76 NONAME
	_ZN36CAknsListBoxBackgroundControlContext13SetBottomRectERK5TRect @ 77 NONAME
	_ZN36CAknsListBoxBackgroundControlContext14SetTiledBitmapERK11TAknsItemID @ 78 NONAME
	_ZN36CAknsListBoxBackgroundControlContext15SetBottomBitmapERK11TAknsItemID @ 79 NONAME
	_ZN36CAknsListBoxBackgroundControlContext4NewLERK11TAknsItemIDRK5TRectiS2_S5_ @ 80 NONAME
	_ZN9AknsUtils10GetAppIconEP17MAknsSkinInstance4TUid5TSizeR16CApaMaskedBitmap @ 81 NONAME
	_ZN9AknsUtils11CreateIconLEP17MAknsSkinInstanceRK11TAknsItemIDRP10CFbsBitmapRK7TDesC16i @ 82 NONAME
	_ZN9AknsUtils11CreateIconLEP17MAknsSkinInstanceRK11TAknsItemIDRP10CFbsBitmapS7_RK7TDesC16ii @ 83 NONAME
	_ZN9AknsUtils11DataContextEP15MObjectProvider @ 84 NONAME
	_ZN9AknsUtils12CreateIconLCEP17MAknsSkinInstanceRK11TAknsItemIDRP10CFbsBitmapRK7TDesC16i @ 85 NONAME
	_ZN9AknsUtils12CreateIconLCEP17MAknsSkinInstanceRK11TAknsItemIDRP10CFbsBitmapS7_RK7TDesC16ii @ 86 NONAME
	_ZN9AknsUtils12SkinInstanceEv @ 87 NONAME
	_ZN9AknsUtils13CreateBitmapLEP17MAknsSkinInstanceRK11TAknsItemID @ 88 NONAME
	_ZN9AknsUtils14CreateGulIconLEP17MAknsSkinInstanceRK11TAknsItemIDRK7TDesC16ii @ 89 NONAME
	_ZN9AknsUtils14CreateGulIconLEP17MAknsSkinInstanceRK11TAknsItemIDi @ 90 NONAME
	_ZN9AknsUtils14GetCachedColorEP17MAknsSkinInstanceR4TRgbRK11TAknsItemIDi @ 91 NONAME
	_ZN9AknsUtils15CreateAppIconLCEP17MAknsSkinInstance4TUid16TAknsAppIconTypeRP10CFbsBitmapS6_ @ 92 NONAME
	_ZN9AknsUtils15GetCachedBitmapEP17MAknsSkinInstanceRK11TAknsItemID @ 93 NONAME
	_ZN9AknsUtils15OpenAppIconFileEP17MAknsSkinInstance4TUid16TAknsAppIconTypeR5RFile @ 94 NONAME
	_ZN9AknsUtils16AvkonSkinEnabledEv @ 95 NONAME
	_ZN9AknsUtils16BooleanPropertyLEP17MAknsSkinInstanceRK11TAknsItemID @ 96 NONAME
	_ZN9AknsUtils16CreateColorIconLEP17MAknsSkinInstanceRK11TAknsItemIDS4_iRP10CFbsBitmapS7_RK7TDesC16ii4TRgb @ 97 NONAME
	_ZN9AknsUtils16CreateColorIconLEP17MAknsSkinInstanceRK11TAknsItemIDS4_iRP10CFbsBitmapS7_RK7TDesC16ii4TRgbRK5TSize10TScaleMode @ 98 NONAME
	_ZN9AknsUtils16InitSkinSupportLEv @ 99 NONAME
	_ZN9AknsUtils17CreateColorIconLCEP17MAknsSkinInstanceRK11TAknsItemIDS4_iRP10CFbsBitmapS7_RK7TDesC16ii4TRgb @ 100 NONAME
	_ZN9AknsUtils17CreateColorIconLCEP17MAknsSkinInstanceRK11TAknsItemIDS4_iRP10CFbsBitmapS7_RK7TDesC16ii4TRgbRK5TSize10TScaleMode @ 101 NONAME
	_ZN9AknsUtils18GetControlPositionEPK11CCoeControlR6TPoint @ 102 NONAME
	_ZN9AknsUtils19CreateMaskedBitmapLEP17MAknsSkinInstanceRK11TAknsItemID @ 103 NONAME
	_ZN9AknsUtils19CreateMaskedBitmapLEP17MAknsSkinInstanceRK11TAknsItemIDRK7TDesC16ii @ 104 NONAME
	_ZN9AknsUtils20CreateBitmapItemDefLERK11TAknsItemIDRK7TDesC16i @ 105 NONAME
	_ZN9AknsUtils20SetAvkonSkinEnabledLEi @ 106 NONAME
	_ZN9AknsUtils21GetCachedMaskedBitmapEP17MAknsSkinInstanceRK11TAknsItemIDRP10CFbsBitmapS7_ @ 107 NONAME
	_ZN9AknsUtils23RegisterControlPositionEPK11CCoeControl @ 108 NONAME
	_ZN9AknsUtils23RegisterControlPositionEPK11CCoeControlRK6TPoint @ 109 NONAME
	_ZN9AknsUtils25DeregisterControlPositionEPK11CCoeControl @ 110 NONAME
	_ZN9AknsUtils26CreateMaskedBitmapItemDefLERK11TAknsItemIDRK7TDesC16ii @ 111 NONAME
	_ZN9AknsUtils30CreateDataContextForContainerLEv @ 112 NONAME
	_ZN9AknsUtils8ReservedEv @ 113 NONAME
	_ZNK13CAknsItemData4TypeEv @ 114 NONAME
	_ZNK18CAknsEffectCommand9EffectUidEv @ 115 NONAME
	_ZNK18CAknsEffectCommand9LayerConfEv @ 116 NONAME
	_ZNK18CAknsImageItemData10AttributesEv @ 117 NONAME
	_ZNK19CAknsStringItemData6StringEv @ 118 NONAME
	_ZNK20CAknsBmpAnimItemData10FrameInfosEv @ 119 NONAME
	_ZNK20CAknsBmpAnimItemData13FrameIntervalEv @ 120 NONAME
	_ZNK20CAknsBmpAnimItemData19LastFrameBackgroundEv @ 121 NONAME
	_ZNK20CAknsBmpAnimItemData5FlashEv @ 122 NONAME
	_ZNK20CAknsBmpAnimItemData8PlayModeEv @ 123 NONAME
	_ZNK23CAknsColorTableItemData12ColorIndexedEi @ 124 NONAME
	_ZNK23CAknsColorTableItemData8ColorRgbEi @ 125 NONAME
	_ZNK23CAknsColorTableItemData9GetColorLEiR4TRgb @ 126 NONAME
	_ZNK23CAknsImageTableItemData14NumberOfImagesEv @ 127 NONAME
	_ZNK23CAknsImageTableItemData6ImagesEv @ 128 NONAME
	_ZNK23CAknsImageTableItemData8ImageIIDEi @ 129 NONAME
	_ZNK24CAknsEffectQueueItemData10InputLayerEv @ 130 NONAME
	_ZNK24CAknsEffectQueueItemData11OutputLayerEv @ 131 NONAME
	_ZNK24CAknsEffectQueueItemData14InputLayerModeEv @ 132 NONAME
	_ZNK24CAknsEffectQueueItemData15OutputLayerModeEv @ 133 NONAME
	_ZNK24CAknsEffectQueueItemData7RefItemEv @ 134 NONAME
	_ZTI16MAknsDataContext @ 135 NONAME ; #<TI>#
	_ZTI19MAknsControlContext @ 136 NONAME ; #<TI>#
	_ZTV16MAknsDataContext @ 137 NONAME ; #<VT>#
	_ZTV19MAknsControlContext @ 138 NONAME ; #<VT>#
	_ZN15CAknsEffectAnim18ConstructFromSkinLERK11TAknsItemID @ 139 NONAME
	_ZN15CAknsEffectAnim21EndConfigInputLayersLEv @ 140 NONAME
	_ZN15CAknsEffectAnim23BeginConfigInputLayersLERK5TSizei @ 141 NONAME
	_ZN15CAknsEffectAnim4NewLEP23MAknsEffectAnimObserver @ 142 NONAME
	_ZN15CAknsEffectAnim4StopEv @ 143 NONAME
	_ZN15CAknsEffectAnim5PauseEv @ 144 NONAME
	_ZN15CAknsEffectAnim5StartEv @ 145 NONAME
	_ZN15CAknsEffectAnim5StateEv @ 146 NONAME
	_ZN15CAknsEffectAnim8ContinueEv @ 147 NONAME
	_ZN15CAknsEffectAnimD0Ev @ 148 NONAME
	_ZN15CAknsEffectAnimD1Ev @ 149 NONAME
	_ZN15CAknsEffectAnimD2Ev @ 150 NONAME
	_ZNK15CAknsEffectAnim10InputRgbGcEv @ 151 NONAME
	_ZNK15CAknsEffectAnim11MinimumSizeEv @ 152 NONAME
	_ZNK15CAknsEffectAnim11OutputAlphaEv @ 153 NONAME
	_ZNK15CAknsEffectAnim12InputAlphaGcEv @ 154 NONAME
	_ZNK15CAknsEffectAnim4SizeEv @ 155 NONAME
	_ZNK15CAknsEffectAnim6RenderER9CFbsBitGcRK5TRect @ 156 NONAME
	_ZNK15CAknsEffectAnim6RenderER9CWindowGcRK5TRect @ 157 NONAME
	_ZNK15CAknsEffectAnim9OutputRgbEv @ 158 NONAME
	_ZTI15CAknsEffectAnim @ 159 NONAME ; #<TI>#
	_ZTI16CAknsTimingModel @ 160 NONAME ; #<TI>#
	_ZTI19CAknsAnimationValue @ 161 NONAME ; #<TI>#
	_ZTI21CAknsAnimationCommand @ 162 NONAME ; #<TI>#
	_ZTI22CAknsAnimationItemData @ 163 NONAME ; #<TI>#
	_ZTV15CAknsEffectAnim @ 164 NONAME ; #<VT>#
	_ZTV16CAknsTimingModel @ 165 NONAME ; #<VT>#
	_ZTV19CAknsAnimationValue @ 166 NONAME ; #<VT>#
	_ZTV21CAknsAnimationCommand @ 167 NONAME ; #<VT>#
	_ZTV22CAknsAnimationItemData @ 168 NONAME ; #<VT>#
	_ZN15CAknsEffectAnim12UpdateOutputEv @ 169 NONAME
	_ZN13AknsDrawUtils12PrepareFrameEP17MAknsSkinInstanceRK5TRectS4_RK11TAknsItemIDS7_ @ 170 NONAME
	_ZN13AknsDrawUtils11SlidingModeEP17MAknsSkinInstance @ 171 NONAME
	_ZN9AknsUtils30AvkonHighlightAnimationEnabledEv @ 172 NONAME
	_ZN9AknsUtils34SetAvkonHighlightAnimationEnabledLEi @ 173 NONAME
	_ZN15CAknsEffectAnim9SetIdlingEi @ 174 NONAME
	_ZNK15CAknsEffectAnim8IsIdlingEv @ 175 NONAME
	_ZN18CAknsImageItemData11SetDrawRectERK5TRect @ 176 NONAME
	_ZN18CAknsImageItemData12SetParentIIDERK11TAknsItemID @ 177 NONAME
	_ZN18CAknsImageItemData8DrawRectEv @ 178 NONAME
	_ZN18CAknsImageItemData9ParentIIDEv @ 179 NONAME
	_ZNK15CAknsEffectAnim6RenderER14CBitmapContextRK5TRect @ 180 NONAME
	_ZNK15CAknsEffectAnim15NeedsInputLayerEv @ 181 NONAME
	_ZN37CAknsCombinedBackgroundControlContext17AddControlContextEP19MAknsControlContext @ 182 NONAME
	_ZN37CAknsCombinedBackgroundControlContext17GetControlContextEi @ 183 NONAME
	_ZN37CAknsCombinedBackgroundControlContext20RemoveControlContextEi @ 184 NONAME
	_ZN37CAknsCombinedBackgroundControlContext4NewLEi @ 185 NONAME
	_ZN40CAknsMaskedLayerBackgroundControlContext12SetLayerRectEiRK5TRect @ 186 NONAME
	_ZN40CAknsMaskedLayerBackgroundControlContext13SetLayerImageEiRK11TAknsItemID @ 187 NONAME
	_ZN40CAknsMaskedLayerBackgroundControlContext20SetLayerMaskAndSizeLERK11TAknsItemIDRK5TRect @ 188 NONAME
	_ZN40CAknsMaskedLayerBackgroundControlContext4NewLERK11TAknsItemIDRK5TRectii @ 189 NONAME

