EXPORTS
	_ZN23TAknTextComponentLayout4SetCEs @ 1 NONAME
	_ZN23TAknTextComponentLayout4SetHEs @ 2 NONAME
	_ZN23TAknTextComponentLayout4SetJEs @ 3 NONAME
	_ZN23TAknTextComponentLayout4SetWEs @ 4 NONAME
	_ZN23TAknTextComponentLayout4SetbEs @ 5 NONAME
	_ZN23TAknTextComponentLayout4SetlEs @ 6 NONAME
	_ZN23TAknTextComponentLayout4SetrEs @ 7 NONAME
	_ZN23TAknTextComponentLayout4SettEs @ 8 NONAME
	_ZN23TAknTextComponentLayout7SetFontEl @ 9 NONAME
	_ZN23TAknTextComponentLayoutC1Ev @ 10 NONAME
	_ZN23TAknTextComponentLayoutC2Ev @ 11 NONAME
	_ZN25TAknWindowComponentLayout4SetCEs @ 12 NONAME
	_ZN25TAknWindowComponentLayout4SetHEs @ 13 NONAME
	_ZN25TAknWindowComponentLayout4SetWEs @ 14 NONAME
	_ZN25TAknWindowComponentLayout4SetbEs @ 15 NONAME
	_ZN25TAknWindowComponentLayout4SetlEs @ 16 NONAME
	_ZN25TAknWindowComponentLayout4SetrEs @ 17 NONAME
	_ZN25TAknWindowComponentLayout4SettEs @ 18 NONAME
	_ZN25TAknWindowComponentLayoutC1Ev @ 19 NONAME
	_ZN25TAknWindowComponentLayoutC2Ev @ 20 NONAME
	_ZN29TAknLayoutScalableTableLimits12SetLastIndexEi @ 21 NONAME
	_ZN29TAknLayoutScalableTableLimits13SetFirstIndexEi @ 22 NONAME
	_ZN29TAknLayoutScalableTableLimitsC1Eii @ 23 NONAME
	_ZN29TAknLayoutScalableTableLimitsC1Ev @ 24 NONAME
	_ZN29TAknLayoutScalableTableLimitsC2Eii @ 25 NONAME
	_ZN29TAknLayoutScalableTableLimitsC2Ev @ 26 NONAME
	_ZN30AknLayoutScalableDecodeSupport10WindowLineER28TAknWindowComponentLayoutImpPK17SCompDataImplData @ 27 NONAME
	_ZN30AknLayoutScalableDecodeSupport10WindowLineER28TAknWindowComponentLayoutImpPK17SCompDataImplDataiii @ 28 NONAME
	_ZN30AknLayoutScalableDecodeSupport11TableLimitsEPKt @ 29 NONAME
	_ZN30AknLayoutScalableDecodeSupport11WindowTableER28TAknWindowComponentLayoutImpPK17SCompDataImplDatai @ 30 NONAME
	_ZN30AknLayoutScalableDecodeSupport11WindowTableER28TAknWindowComponentLayoutImpPK17SCompDataImplDataiiii @ 31 NONAME
	_ZN30AknLayoutScalableDecodeSupport8TextLineER26TAknTextComponentLayoutImpPK17SCompDataImplData @ 32 NONAME
	_ZN30AknLayoutScalableDecodeSupport8TextLineER26TAknTextComponentLayoutImpPK17SCompDataImplDataiii @ 33 NONAME
	_ZN30AknLayoutScalableDecodeSupport9TextTableER26TAknTextComponentLayoutImpPK17SCompDataImplDatai @ 34 NONAME
	_ZN30AknLayoutScalableDecodeSupport9TextTableER26TAknTextComponentLayoutImpPK17SCompDataImplDataiiii @ 35 NONAME
	_ZNK23TAknTextComponentLayout1CEv @ 36 NONAME
	_ZNK23TAknTextComponentLayout1HEv @ 37 NONAME
	_ZNK23TAknTextComponentLayout1JEv @ 38 NONAME
	_ZNK23TAknTextComponentLayout1WEv @ 39 NONAME
	_ZNK23TAknTextComponentLayout1bEv @ 40 NONAME
	_ZNK23TAknTextComponentLayout1lEv @ 41 NONAME
	_ZNK23TAknTextComponentLayout1rEv @ 42 NONAME
	_ZNK23TAknTextComponentLayout1tEv @ 43 NONAME
	_ZNK23TAknTextComponentLayout4FontEv @ 44 NONAME
	_ZNK25TAknWindowComponentLayout1CEv @ 45 NONAME
	_ZNK25TAknWindowComponentLayout1HEv @ 46 NONAME
	_ZNK25TAknWindowComponentLayout1WEv @ 47 NONAME
	_ZNK25TAknWindowComponentLayout1bEv @ 48 NONAME
	_ZNK25TAknWindowComponentLayout1lEv @ 49 NONAME
	_ZNK25TAknWindowComponentLayout1rEv @ 50 NONAME
	_ZNK25TAknWindowComponentLayout1tEv @ 51 NONAME
	_ZNK29TAknLayoutScalableTableLimits10FirstIndexEv @ 52 NONAME
	_ZNK29TAknLayoutScalableTableLimits9LastIndexEv @ 53 NONAME
	_ZNK23TAknTextComponentLayout10LayoutLineEv @ 54 NONAME
	_ZNK25TAknWindowComponentLayout10LayoutLineEv @ 55 NONAME
	_ZNK29TAknLayoutScalableTableLimits12LayoutLimitsEv @ 56 NONAME
	_ZN25TAknWindowComponentLayout11ComposeTextES_23TAknTextComponentLayout @ 57 NONAME
	_ZN25TAknWindowComponentLayout5MinusES_S_ @ 58 NONAME
	_ZN25TAknWindowComponentLayout7ComposeES_S_ @ 59 NONAME
	_ZN25TAknWindowComponentLayout9IntersectES_S_ @ 60 NONAME
	_ZN23TAknTextComponentLayout10MultiLineYES_ii @ 61 NONAME
	_ZN23TAknTextComponentLayout18RemoveLayoutEmptysES_ @ 62 NONAME
	_ZN25TAknWindowComponentLayout10MultiLineXES_ii @ 63 NONAME
	_ZN25TAknWindowComponentLayout10MultiLineYES_ii @ 64 NONAME
	_ZN25TAknWindowComponentLayout12SetZeroSizedEv @ 65 NONAME
	_ZN25TAknWindowComponentLayout13MultiLineGridES_iiii @ 66 NONAME
	_ZN25TAknWindowComponentLayout14SiblingAsChildES_S_ @ 67 NONAME
	_ZN25TAknWindowComponentLayout4AnimES_S_RKNS_13TRangeTripletE @ 68 NONAME
	_ZN25TAknWindowComponentLayout5SplitES_i @ 69 NONAME
	_ZN30AknLayoutScalableDecodeSupport15ParameterLimitsER36TAknLayoutScalableParameterLimitsImpPK17SCompDataImplDatai @ 70 NONAME
	_ZN30AknLayoutScalableDecodeSupport20ParameterLimitsTableER36TAknLayoutScalableParameterLimitsImpPK17SCompDataImplDataii @ 71 NONAME
	_ZN33TAknLayoutScalableParameterLimits10SetLastRowEi @ 72 NONAME
	_ZN33TAknLayoutScalableParameterLimits11SetFirstRowEi @ 73 NONAME
	_ZN33TAknLayoutScalableParameterLimits13SetLastColumnEi @ 74 NONAME
	_ZN33TAknLayoutScalableParameterLimits14SetFirstColumnEi @ 75 NONAME
	_ZN33TAknLayoutScalableParameterLimits14SetLastVarietyEi @ 76 NONAME
	_ZN33TAknLayoutScalableParameterLimits15SetFirstVarietyEi @ 77 NONAME
	_ZN33TAknLayoutScalableParameterLimitsC1Eiiiiii @ 78 NONAME
	_ZN33TAknLayoutScalableParameterLimitsC1Ev @ 79 NONAME
	_ZN33TAknLayoutScalableParameterLimitsC2Eiiiiii @ 80 NONAME
	_ZN33TAknLayoutScalableParameterLimitsC2Ev @ 81 NONAME
	_ZNK33TAknLayoutScalableParameterLimits10LastColumnEv @ 82 NONAME
	_ZNK33TAknLayoutScalableParameterLimits11FirstColumnEv @ 83 NONAME
	_ZNK33TAknLayoutScalableParameterLimits11LastVarietyEv @ 84 NONAME
	_ZNK33TAknLayoutScalableParameterLimits12FirstVarietyEv @ 85 NONAME
	_ZNK33TAknLayoutScalableParameterLimits7LastRowEv @ 86 NONAME
	_ZNK33TAknLayoutScalableParameterLimits8FirstRowEv @ 87 NONAME
	_ZN23TAknTextComponentLayout4AnimES_S_RKN25TAknWindowComponentLayout13TRangeTripletE @ 88 NONAME
	_ZN23TAknTextComponentLayoutC1E18TAknTextLineLayout @ 89 NONAME
	_ZN23TAknTextComponentLayoutC2E18TAknTextLineLayout @ 90 NONAME
	_ZN23TAknTextComponentLayoutaSE18TAknTextLineLayout @ 91 NONAME
	_ZN25TAknWindowComponentLayoutC1E20TAknWindowLineLayout @ 92 NONAME
	_ZN25TAknWindowComponentLayoutC2E20TAknWindowLineLayout @ 93 NONAME
	_ZN25TAknWindowComponentLayoutaSE20TAknWindowLineLayout @ 94 NONAME
	_ZN23TAknTextComponentLayout9MultilineERK6RArrayIS_E @ 95 NONAME
	_ZNK23TAknTextComponentLayout18LayoutLineNoEmptysEv @ 96 NONAME
	_ZNK25TAknWindowComponentLayout18LayoutLineNoEmptysEv @ 97 NONAME
	_ZN30AknLayoutScalableDecodeSupport18GetParamLimitsByIdER36TAknLayoutScalableParameterLimitsImpPK17SCompDataImplDataii @ 98 NONAME
	_ZN30AknLayoutScalableDecodeSupport20GetComponentTypeByIdER31TAknLayoutScalableComponentTypePK17SCompDataImplDatai @ 99 NONAME
	_ZN30AknLayoutScalableDecodeSupport20GetTextComponentByIdER26TAknTextComponentLayoutImpPK17SCompDataImplDataiiii @ 100 NONAME
	_ZN30AknLayoutScalableDecodeSupport22GetWindowComponentByIdER28TAknWindowComponentLayoutImpPK17SCompDataImplDataiiii @ 101 NONAME
	_ZNK23TAknTextComponentLayout19LayoutComponentTypeEv @ 102 NONAME
	_ZNK25TAknWindowComponentLayout19LayoutComponentTypeEv @ 103 NONAME

